target datalayout = "e-m:e-p270:32:32-p271:32:32-p272:64:64-i64:64-i128:128-f80:128-n8:16:32:64-S128"
target triple = "x86_64-unknown-linux-gnu"

%"struct.spacer::iuc_solver::def_manager" = type { ptr, %class.ref_vector, %class.obj_map, %class.obj_map.6 }
%class.ref_vector = type { %class.ref_vector_core }
%class.ref_vector_core = type { %class.ref_manager_wrapper, %class.ptr_vector }
%class.ref_manager_wrapper = type { ptr }
%class.ptr_vector = type { %class.vector }
%class.vector = type { ptr }
%class.obj_map = type { %class.core_hashtable }
%class.core_hashtable = type <{ ptr, i32, i32, i32, [4 x i8] }>
%class.obj_map.6 = type { %class.core_hashtable.7 }
%class.core_hashtable.7 = type <{ ptr, i32, i32, i32, [4 x i8] }>

; Function Attrs: mustprogress nounwind uwtable
define linkonce_odr hidden noundef i32 @_ZNK6vectorIP4exprLb0EjE4sizeEv(ptr noundef nonnull align 8 dereferenceable(8) %this) #5 comdat align 2 {
entry:
  %retval = alloca i32, align 4
  %this.addr = alloca ptr, align 8
  store ptr %this, ptr %this.addr, align 8
  %this1 = load ptr, ptr %this.addr, align 8
  %m_data = getelementptr inbounds %class.vector, ptr %this1, i32 0, i32 0
  %0 = load ptr, ptr %m_data, align 8
  %cmp = icmp eq ptr %0, null
  br i1 %cmp, label %if.then, label %if.end

if.then:                                          ; preds = %entry
  store i32 0, ptr %retval, align 4
  br label %return

if.end:                                           ; preds = %entry
  %m_data2 = getelementptr inbounds %class.vector, ptr %this1, i32 0, i32 0
  %1 = load ptr, ptr %m_data2, align 8
  %arrayidx = getelementptr inbounds i32, ptr %1, i64 -1
  %2 = load i32, ptr %arrayidx, align 4
  store i32 %2, ptr %retval, align 4
  br label %return

return:                                           ; preds = %if.end, %if.then
  %3 = load i32, ptr %retval, align 4
  ret i32 %3
}

; Function Attrs: mustprogress nounwind uwtable
define linkonce_odr hidden noundef nonnull align 8 dereferenceable(8) ptr @_ZNK6vectorIP4exprLb0EjEixEj(ptr noundef nonnull align 8 dereferenceable(8) %this, i32 noundef %idx) #5 comdat align 2 {
entry:
  %this.addr = alloca ptr, align 8
  %idx.addr = alloca i32, align 4
  store ptr %this, ptr %this.addr, align 8
  store i32 %idx, ptr %idx.addr, align 4
  %this1 = load ptr, ptr %this.addr, align 8
  %m_data = getelementptr inbounds %class.vector, ptr %this1, i32 0, i32 0
  %0 = load ptr, ptr %m_data, align 8
  %1 = load i32, ptr %idx.addr, align 4
  %idxprom = zext i32 %1 to i64
  %arrayidx = getelementptr inbounds ptr, ptr %0, i64 %idxprom
  ret ptr %arrayidx
}

; Function Attrs: mustprogress nounwind uwtable
define linkonce_odr hidden noundef i32 @_ZNK15ref_vector_coreI4expr19ref_manager_wrapperIS0_11ast_managerEE4sizeEv(ptr noundef nonnull align 8 dereferenceable(16) %this) #5 comdat align 2 {
entry:
  %this.addr = alloca ptr, align 8
  store ptr %this, ptr %this.addr, align 8
  %this1 = load ptr, ptr %this.addr, align 8
  %m_nodes = getelementptr inbounds %class.ref_vector_core, ptr %this1, i32 0, i32 1
  %call = call noundef i32 @_ZNK6vectorIP4exprLb0EjE4sizeEv(ptr noundef nonnull align 8 dereferenceable(8) %m_nodes)
  ret i32 %call
}

; Function Attrs: mustprogress nounwind uwtable
define linkonce_odr hidden noundef zeroext i1 @_ZNK15ref_vector_coreI4expr19ref_manager_wrapperIS0_11ast_managerEE8containsEPS0_(ptr noundef nonnull align 8 dereferenceable(16) %this, ptr noundef %elem) #5 comdat align 2 {
entry:
  %retval = alloca i1, align 1
  %this.addr = alloca ptr, align 8
  %elem.addr = alloca ptr, align 8
  %sz = alloca i32, align 4
  %idx = alloca i32, align 4
  store ptr %this, ptr %this.addr, align 8
  store ptr %elem, ptr %elem.addr, align 8
  %this1 = load ptr, ptr %this.addr, align 8
  %call = call noundef i32 @_ZNK15ref_vector_coreI4expr19ref_manager_wrapperIS0_11ast_managerEE4sizeEv(ptr noundef nonnull align 8 dereferenceable(16) %this1)
  store i32 %call, ptr %sz, align 4
  store i32 0, ptr %idx, align 4
  br label %for.cond

for.cond:                                         ; preds = %for.inc, %entry
  %0 = load i32, ptr %idx, align 4
  %1 = load i32, ptr %sz, align 4
  %cmp = icmp ult i32 %0, %1
  br i1 %cmp, label %for.body, label %for.end

for.body:                                         ; preds = %for.cond
  %m_nodes = getelementptr inbounds %class.ref_vector_core, ptr %this1, i32 0, i32 1
  %2 = load i32, ptr %idx, align 4
  %call2 = call noundef nonnull align 8 dereferenceable(8) ptr @_ZNK6vectorIP4exprLb0EjEixEj(ptr noundef nonnull align 8 dereferenceable(8) %m_nodes, i32 noundef %2)
  %3 = load ptr, ptr %call2, align 8
  %4 = load ptr, ptr %elem.addr, align 8
  %cmp3 = icmp eq ptr %3, %4
  br i1 %cmp3, label %if.then, label %if.end

if.then:                                          ; preds = %for.body
  store i1 true, ptr %retval, align 1
  br label %return

if.end:                                           ; preds = %for.body
  br label %for.inc

for.inc:                                          ; preds = %if.end
  %5 = load i32, ptr %idx, align 4
  %inc = add i32 %5, 1
  store i32 %inc, ptr %idx, align 4
  br label %for.cond, !llvm.loop !9

for.end:                                          ; preds = %for.cond
  store i1 false, ptr %retval, align 1
  br label %return

return:                                           ; preds = %for.end, %if.then
  %6 = load i1, ptr %retval, align 1
  ret i1 %6
}

; Function Attrs: mustprogress uwtable
define hidden noundef zeroext i1 @_ZN6spacer10iuc_solver11def_manager12is_proxy_defEP4expr(ptr noundef nonnull align 8 dereferenceable(72) %this, ptr noundef %v) #4 align 2 {
entry:
  %this.addr = alloca ptr, align 8
  %v.addr = alloca ptr, align 8
  store ptr %this, ptr %this.addr, align 8
  store ptr %v, ptr %v.addr, align 8
  %this1 = load ptr, ptr %this.addr, align 8
  %m_defs = getelementptr inbounds %"struct.spacer::iuc_solver::def_manager", ptr %this1, i32 0, i32 1
  %0 = load ptr, ptr %v.addr, align 8
  %call = call noundef zeroext i1 @_ZNK15ref_vector_coreI4expr19ref_manager_wrapperIS0_11ast_managerEE8containsEPS0_(ptr noundef nonnull align 8 dereferenceable(16) %m_defs, ptr noundef %0)
  ret i1 %call
}