; Function Attrs: mustprogress nofree norecurse nosync nounwind willreturn memory(read, inaccessiblemem: none) uwtable
define hidden noundef zeroext i1 @_ZN6spacer10iuc_solver11def_manager12is_proxy_defEP4expr(ptr nocapture noundef nonnull readonly align 8 dereferenceable(72) %this, ptr noundef readnone %v) local_unnamed_addr #6 align 2 {
entry:
  %m_nodes.i.i = getelementptr inbounds i8, ptr %this, i64 16
  %0 = load ptr, ptr %m_nodes.i.i, align 8
  %cmp.i.i.i = icmp eq ptr %0, null
  br i1 %cmp.i.i.i, label %_ZNK15ref_vector_coreI4expr19ref_manager_wrapperIS0_11ast_managerEE8containsEPS0_.exit, label %_ZNK15ref_vector_coreI4expr19ref_manager_wrapperIS0_11ast_managerEE4sizeEv.exit.i

_ZNK15ref_vector_coreI4expr19ref_manager_wrapperIS0_11ast_managerEE4sizeEv.exit.i: ; preds = %entry
  %arrayidx.i.i.i = getelementptr inbounds i8, ptr %0, i64 -4
  %1 = load i32, ptr %arrayidx.i.i.i, align 4
  %cmp4.not.i = icmp eq i32 %1, 0
  br i1 %cmp4.not.i, label %_ZNK15ref_vector_coreI4expr19ref_manager_wrapperIS0_11ast_managerEE8containsEPS0_.exit, label %for.body.preheader.i

for.body.preheader.i:                             ; preds = %_ZNK15ref_vector_coreI4expr19ref_manager_wrapperIS0_11ast_managerEE4sizeEv.exit.i
  %2 = zext i32 %1 to i64
  %3 = load ptr, ptr %0, align 8
  %cmp3.i1 = icmp eq ptr %3, %v
  br i1 %cmp3.i1, label %_ZNK15ref_vector_coreI4expr19ref_manager_wrapperIS0_11ast_managerEE8containsEPS0_.exit, label %for.cond.i

for.cond.i:                                       ; preds = %for.body.preheader.i, %for.body.i
  %indvars.iv.i2 = phi i64 [ %indvars.iv.next.i, %for.body.i ], [ 0, %for.body.preheader.i ]
  %indvars.iv.next.i = add nuw nsw i64 %indvars.iv.i2, 1
  %exitcond.not.i = icmp eq i64 %indvars.iv.next.i, %2
  br i1 %exitcond.not.i, label %_ZNK15ref_vector_coreI4expr19ref_manager_wrapperIS0_11ast_managerEE8containsEPS0_.exit.loopexit, label %for.body.i, !llvm.loop !16

for.body.i:                                       ; preds = %for.cond.i
  %arrayidx.i.i = getelementptr inbounds ptr, ptr %0, i64 %indvars.iv.next.i
  %4 = load ptr, ptr %arrayidx.i.i, align 8
  %cmp3.i = icmp eq ptr %4, %v
  br i1 %cmp3.i, label %_ZNK15ref_vector_coreI4expr19ref_manager_wrapperIS0_11ast_managerEE8containsEPS0_.exit.loopexit, label %for.cond.i, !llvm.loop !16

_ZNK15ref_vector_coreI4expr19ref_manager_wrapperIS0_11ast_managerEE8containsEPS0_.exit.loopexit: ; preds = %for.cond.i, %for.body.i
  %cmp.i.le = icmp ult i64 %indvars.iv.next.i, %2
  br label %_ZNK15ref_vector_coreI4expr19ref_manager_wrapperIS0_11ast_managerEE8containsEPS0_.exit

_ZNK15ref_vector_coreI4expr19ref_manager_wrapperIS0_11ast_managerEE8containsEPS0_.exit: ; preds = %_ZNK15ref_vector_coreI4expr19ref_manager_wrapperIS0_11ast_managerEE8containsEPS0_.exit.loopexit, %for.body.preheader.i, %entry, %_ZNK15ref_vector_coreI4expr19ref_manager_wrapperIS0_11ast_managerEE4sizeEv.exit.i
  %cmp.lcssa.i = phi i1 [ false, %_ZNK15ref_vector_coreI4expr19ref_manager_wrapperIS0_11ast_managerEE4sizeEv.exit.i ], [ false, %entry ], [ true, %for.body.preheader.i ], [ %cmp.i.le, %_ZNK15ref_vector_coreI4expr19ref_manager_wrapperIS0_11ast_managerEE8containsEPS0_.exit.loopexit ]
  ret i1 %cmp.lcssa.i
}